target datalayout = "e-m:e-p270:32:32-p271:32:32-p272:64:64-i64:64-i128:128-f80:128-n8:16:32:64-S128"
target triple = "x86_64-pc-linux-gnu"

%struct.expert_field = type { i32, i32 }
%struct._address = type { i32, i32, ptr, ptr }
%struct._packet_info = type { ptr, ptr, i32, i32, %struct.nstime_t, %struct.nstime_t, %struct.nstime_t, i8, ptr, ptr, ptr, ptr, %struct._address, %struct._address, %struct._address, %struct._address, %struct._address, %struct._address, i32, ptr, i8, [3 x i8], %struct.anon, i32, i32, i32, i32, ptr, i8, ptr, ptr, i16, i16, i32, i32, i16, i32, i32, ptr, ptr, ptr, i8, i8, i16, i16, i16, i32, i16, i16, ptr, ptr, ptr, ptr, ptr, i32, i32 }
%struct.nstime_t = type { i64, i32 }
%struct.anon = type { i8, [3 x i8] }

@hf_dvbci_resp_intv = internal global i32 0, align 4
@hf_dvbci_utc_time = internal global i32 0, align 4
@hf_dvbci_local_offset = internal global i32 0, align 4
@ei_dvbci_bad_length = internal global %struct.expert_field zeroinitializer, align 4
@ei_dvbci_time_offs_unknown = internal global %struct.expert_field zeroinitializer, align 4
@.str.990 = private unnamed_addr constant [3 x i8] c": \00", align 1
@.str.1003 = private unnamed_addr constant [17 x i8] c"individual query\00", align 1
@.str.1004 = private unnamed_addr constant [20 x i8] c" (individual query)\00", align 1
@.str.1005 = private unnamed_addr constant [16 x i8] c"update every %s\00", align 1
@.str.1006 = private unnamed_addr constant [8 x i8] c"unknown\00", align 1
@.str.1007 = private unnamed_addr constant [51 x i8] c"Invalid APDU length field, %s must be 5 or 7 bytes\00", align 1
@.str.1008 = private unnamed_addr constant [61 x i8] c"Invalid UTC time field, 2 bytes MJD, 3 bytes BCD time hhmmss\00", align 1
@.str.1009 = private unnamed_addr constant [7 x i8] c"%s UTC\00", align 1
@.str.1010 = private unnamed_addr constant [48 x i8] c"offset between UTC and local time is %d minutes\00", align 1

; Function Attrs: inlinehint nounwind null_pointer_is_valid sspstrong uwtable
define internal signext i16 @two_comp_to_int16(i16 noundef zeroext %0) #1 {
  %2 = alloca i16, align 2
  store i16 %0, ptr %2, align 2
  %3 = load i16, ptr %2, align 2
  %4 = zext i16 %3 to i32
  %5 = and i32 %4, 32768
  %6 = icmp ne i32 %5, 0
  br i1 %6, label %7, label %13

7:                                                ; preds = %1
  %8 = load i16, ptr %2, align 2
  %9 = zext i16 %8 to i32
  %10 = sub i32 %9, 1
  %11 = xor i32 %10, -1
  %12 = sub i32 0, %11
  br label %16

13:                                               ; preds = %1
  %14 = load i16, ptr %2, align 2
  %15 = zext i16 %14 to i32
  br label %16

16:                                               ; preds = %13, %7
  %17 = phi i32 [ %12, %7 ], [ %15, %13 ]
  %18 = trunc i32 %17 to i16
  ret i16 %18
}

; Function Attrs: null_pointer_is_valid sspstrong uwtable
define internal void @dissect_dvbci_payload_dt(i32 noundef %0, i32 noundef %1, ptr noundef %2, i32 noundef %3, ptr noundef %4, ptr noundef %5, ptr noundef %6) #0 {
  %8 = alloca i32, align 4
  %9 = alloca i32, align 4
  %10 = alloca ptr, align 8
  %11 = alloca i32, align 4
  %12 = alloca ptr, align 8
  %13 = alloca ptr, align 8
  %14 = alloca ptr, align 8
  %15 = alloca %struct.nstime_t, align 8
  %16 = alloca ptr, align 8
  %17 = alloca ptr, align 8
  %18 = alloca i32, align 4
  %19 = alloca %struct.nstime_t, align 8
  %20 = alloca i16, align 2
  %21 = alloca i32, align 4
  store i32 %0, ptr %8, align 4
  store i32 %1, ptr %9, align 4
  store ptr %2, ptr %10, align 8
  store i32 %3, ptr %11, align 4
  store ptr %4, ptr %12, align 8
  store ptr %5, ptr %13, align 8
  store ptr %6, ptr %14, align 8
  call void @llvm.lifetime.start.p0(i64 16, ptr %15) #11
  call void @llvm.lifetime.start.p0(i64 8, ptr %16) #11
  store ptr null, ptr %16, align 8
  call void @llvm.lifetime.start.p0(i64 8, ptr %17) #11
  call void @llvm.lifetime.start.p0(i64 4, ptr %18) #11
  call void @llvm.lifetime.start.p0(i64 16, ptr %19) #11
  call void @llvm.lifetime.start.p0(i64 2, ptr %20) #11
  %22 = load i32, ptr %8, align 4
  %23 = icmp eq i32 %22, 10454080
  br i1 %23, label %24, label %52

24:                                               ; preds = %7
  call void @nstime_set_zero(ptr noundef %15)
  %25 = load ptr, ptr %10, align 8
  %26 = load i32, ptr %11, align 4
  %27 = call zeroext i8 @tvb_get_uint8(ptr noundef %25, i32 noundef %26)
  %28 = zext i8 %27 to i64
  %29 = getelementptr inbounds nuw %struct.nstime_t, ptr %15, i32 0, i32 0
  store i64 %28, ptr %29, align 8
  %30 = load ptr, ptr %14, align 8
  %31 = load i32, ptr @hf_dvbci_resp_intv, align 4
  %32 = load ptr, ptr %10, align 8
  %33 = load i32, ptr %11, align 4
  %34 = call ptr @proto_tree_add_time(ptr noundef %30, i32 noundef %31, ptr noundef %32, i32 noundef %33, i32 noundef 1, ptr noundef %15)
  store ptr %34, ptr %16, align 8
  %35 = getelementptr inbounds nuw %struct.nstime_t, ptr %15, i32 0, i32 0
  %36 = load i64, ptr %35, align 8
  %37 = icmp eq i64 %36, 0
  br i1 %37, label %38, label %43

38:                                               ; preds = %24
  %39 = load ptr, ptr %13, align 8
  %40 = getelementptr inbounds nuw %struct._packet_info, ptr %39, i32 0, i32 1
  %41 = load ptr, ptr %40, align 8
  call void @col_append_sep_str(ptr noundef %41, i32 noundef 25, ptr noundef null, ptr noundef @.str.1003)
  %42 = load ptr, ptr %16, align 8
  call void (ptr, ptr, ...) @proto_item_append_text(ptr noundef %42, ptr noundef @.str.1004)
  br label %51

43:                                               ; preds = %24
  %44 = load ptr, ptr %13, align 8
  %45 = getelementptr inbounds nuw %struct._packet_info, ptr %44, i32 0, i32 1
  %46 = load ptr, ptr %45, align 8
  %47 = load ptr, ptr %13, align 8
  %48 = getelementptr inbounds nuw %struct._packet_info, ptr %47, i32 0, i32 51
  %49 = load ptr, ptr %48, align 8
  %50 = call ptr @rel_time_to_str(ptr noundef %49, ptr noundef %15)
  call void (ptr, i32, ptr, ptr, ...) @col_append_sep_fstr(ptr noundef %46, i32 noundef 25, ptr noundef null, ptr noundef @.str.1005, ptr noundef %50)
  br label %51

51:                                               ; preds = %43, %38
  br label %123

52:                                               ; preds = %7
  %53 = load i32, ptr %8, align 4
  %54 = icmp eq i32 %53, 10454081
  br i1 %54, label %55, label %122

55:                                               ; preds = %52
  %56 = load i32, ptr %9, align 4
  %57 = icmp ne i32 %56, 5
  br i1 %57, label %58, label %71

58:                                               ; preds = %55
  %59 = load i32, ptr %9, align 4
  %60 = icmp ne i32 %59, 7
  br i1 %60, label %61, label %71

61:                                               ; preds = %58
  %62 = load i32, ptr %8, align 4
  %63 = call ptr @val_to_str_const(i32 noundef %62, ptr noundef @dvbci_apdu_tag, ptr noundef @.str.1006)
  store ptr %63, ptr %17, align 8
  %64 = load ptr, ptr %14, align 8
  %65 = load ptr, ptr %13, align 8
  %66 = load ptr, ptr %10, align 8
  %67 = load i32, ptr %11, align 4
  %68 = sub i32 %67, 3
  %69 = load ptr, ptr %17, align 8
  %70 = call ptr (ptr, ptr, ptr, ptr, i32, i32, ptr, ...) @proto_tree_add_expert_format(ptr noundef %64, ptr noundef %65, ptr noundef @ei_dvbci_bad_length, ptr noundef %66, i32 noundef 3, i32 noundef %68, ptr noundef @.str.1007, ptr noundef %69)
  store i32 1, ptr %21, align 4
  br label %124

71:                                               ; preds = %58, %55
  %72 = load ptr, ptr %10, align 8
  %73 = load i32, ptr %11, align 4
  %74 = call i32 @packet_mpeg_sect_mjd_to_utc_time(ptr noundef %72, i32 noundef %73, ptr noundef %19)
  store i32 %74, ptr %18, align 4
  %75 = load i32, ptr %18, align 4
  %76 = icmp slt i32 %75, 0
  br i1 %76, label %77, label %83

77:                                               ; preds = %71
  %78 = load ptr, ptr %14, align 8
  %79 = load ptr, ptr %13, align 8
  %80 = load ptr, ptr %10, align 8
  %81 = load i32, ptr %11, align 4
  %82 = call ptr (ptr, ptr, ptr, ptr, i32, i32, ptr, ...) @proto_tree_add_expert_format(ptr noundef %78, ptr noundef %79, ptr noundef @ei_dvbci_bad_length, ptr noundef %80, i32 noundef %81, i32 noundef 5, ptr noundef @.str.1008)
  store i32 1, ptr %21, align 4
  br label %124

83:                                               ; preds = %71
  %84 = load ptr, ptr %14, align 8
  %85 = load i32, ptr @hf_dvbci_utc_time, align 4
  %86 = load ptr, ptr %10, align 8
  %87 = load i32, ptr %11, align 4
  %88 = load i32, ptr %18, align 4
  %89 = call ptr @proto_tree_add_time(ptr noundef %84, i32 noundef %85, ptr noundef %86, i32 noundef %87, i32 noundef %88, ptr noundef %19)
  %90 = load ptr, ptr %13, align 8
  %91 = getelementptr inbounds nuw %struct._packet_info, ptr %90, i32 0, i32 1
  %92 = load ptr, ptr %91, align 8
  %93 = load ptr, ptr %13, align 8
  %94 = getelementptr inbounds nuw %struct._packet_info, ptr %93, i32 0, i32 51
  %95 = load ptr, ptr %94, align 8
  %96 = call ptr @abs_time_to_str_ex(ptr noundef %95, ptr noundef %19, i32 noundef 19, i32 noundef 0)
  call void (ptr, i32, ptr, ptr, ...) @col_append_sep_fstr(ptr noundef %92, i32 noundef 25, ptr noundef @.str.990, ptr noundef @.str.1009, ptr noundef %96)
  %97 = load i32, ptr %18, align 4
  %98 = load i32, ptr %11, align 4
  %99 = add i32 %98, %97
  store i32 %99, ptr %11, align 4
  %100 = load i32, ptr %9, align 4
  %101 = icmp eq i32 %100, 7
  br i1 %101, label %102, label %116

102:                                              ; preds = %83
  %103 = load ptr, ptr %10, align 8
  %104 = load i32, ptr %11, align 4
  %105 = call zeroext i16 @tvb_get_ntohs(ptr noundef %103, i32 noundef %104)
  %106 = call signext i16 @two_comp_to_int16(i16 noundef zeroext %105)
  store i16 %106, ptr %20, align 2
  %107 = load ptr, ptr %14, align 8
  %108 = load i32, ptr @hf_dvbci_local_offset, align 4
  %109 = load ptr, ptr %10, align 8
  %110 = load i32, ptr %11, align 4
  %111 = load i16, ptr %20, align 2
  %112 = sext i16 %111 to i32
  %113 = load i16, ptr %20, align 2
  %114 = sext i16 %113 to i32
  %115 = call ptr (ptr, i32, ptr, i32, i32, i32, ptr, ...) @proto_tree_add_int_format(ptr noundef %107, i32 noundef %108, ptr noundef %109, i32 noundef %110, i32 noundef 2, i32 noundef %112, ptr noundef @.str.1010, i32 noundef %114)
  br label %121

116:                                              ; preds = %83
  %117 = load ptr, ptr %14, align 8
  %118 = load ptr, ptr %13, align 8
  %119 = load ptr, ptr %10, align 8
  %120 = call ptr @proto_tree_add_expert(ptr noundef %117, ptr noundef %118, ptr noundef @ei_dvbci_time_offs_unknown, ptr noundef %119, i32 noundef 0, i32 noundef 0)
  br label %121

121:                                              ; preds = %116, %102
  br label %122

122:                                              ; preds = %121, %52
  br label %123

123:                                              ; preds = %122, %51
  store i32 0, ptr %21, align 4
  br label %124

124:                                              ; preds = %123, %77, %61
  call void @llvm.lifetime.end.p0(i64 2, ptr %20) #11
  call void @llvm.lifetime.end.p0(i64 16, ptr %19) #11
  call void @llvm.lifetime.end.p0(i64 4, ptr %18) #11
  call void @llvm.lifetime.end.p0(i64 8, ptr %17) #11
  call void @llvm.lifetime.end.p0(i64 8, ptr %16) #11
  call void @llvm.lifetime.end.p0(i64 16, ptr %15) #11
  %125 = load i32, ptr %21, align 4
  switch i32 %125, label %127 [
    i32 0, label %126
    i32 1, label %126
  ]

126:                                              ; preds = %124, %124
  ret void

127:                                              ; preds = %124
  unreachable
}