; Function Attrs: null_pointer_is_valid sspstrong uwtable
define internal void @dissect_dvbci_payload_dt(i32 noundef %0, i32 noundef %1, ptr noundef %2, i32 noundef %3, ptr readnone captures(none) %4, ptr noundef %5, ptr noundef %6) #1 {
  %8 = alloca %struct.nstime_t, align 8
  %9 = alloca %struct.nstime_t, align 8
  call void @llvm.lifetime.start.p0(i64 16, ptr nonnull %8) #16
  call void @llvm.lifetime.start.p0(i64 16, ptr nonnull %9) #16
  switch i32 %0, label %52 [
    i32 10454080, label %10
    i32 10454081, label %24
  ]

10:                                               ; preds = %7
  call void @nstime_set_zero(ptr noundef nonnull %8)
  %11 = call zeroext i8 @tvb_get_uint8(ptr noundef %2, i32 noundef %3)
  %12 = zext i8 %11 to i64
  store i64 %12, ptr %8, align 8
  %13 = load i32, ptr @hf_dvbci_resp_intv, align 4
  %14 = call ptr @proto_tree_add_time(ptr noundef %6, i32 noundef %13, ptr noundef %2, i32 noundef %3, i32 noundef 1, ptr noundef nonnull %8)
  %15 = load i64, ptr %8, align 8
  %16 = icmp eq i64 %15, 0
  %17 = getelementptr inbounds nuw i8, ptr %5, i64 8
  %18 = load ptr, ptr %17, align 8
  br i1 %16, label %19, label %20

19:                                               ; preds = %10
  call void @col_append_sep_str(ptr noundef %18, i32 noundef 25, ptr noundef null, ptr noundef nonnull @.str.1003)
  call void (ptr, ptr, ...) @proto_item_append_text(ptr noundef %14, ptr noundef nonnull @.str.1004)
  br label %52

20:                                               ; preds = %10
  %21 = getelementptr inbounds nuw i8, ptr %5, i64 408
  %22 = load ptr, ptr %21, align 8
  %23 = call ptr @rel_time_to_str(ptr noundef %22, ptr noundef nonnull %8)
  call void (ptr, i32, ptr, ptr, ...) @col_append_sep_fstr(ptr noundef %18, i32 noundef 25, ptr noundef null, ptr noundef nonnull @.str.1005, ptr noundef %23)
  br label %52

24:                                               ; preds = %7
  %25 = and i32 %1, -3
  %or.cond.not = icmp eq i32 %25, 5
  br i1 %or.cond.not, label %30, label %26

26:                                               ; preds = %24
  %27 = tail call ptr @val_to_str_const(i32 noundef 10454081, ptr noundef nonnull @dvbci_apdu_tag, ptr noundef nonnull @.str.1006)
  %28 = add i32 %3, -3
  %29 = tail call ptr (ptr, ptr, ptr, ptr, i32, i32, ptr, ...) @proto_tree_add_expert_format(ptr noundef %6, ptr noundef %5, ptr noundef nonnull @ei_dvbci_bad_length, ptr noundef %2, i32 noundef 3, i32 noundef %28, ptr noundef nonnull @.str.1007, ptr noundef %27)
  br label %52

30:                                               ; preds = %24
  %31 = call i32 @packet_mpeg_sect_mjd_to_utc_time(ptr noundef %2, i32 noundef %3, ptr noundef nonnull %9)
  %32 = icmp slt i32 %31, 0
  br i1 %32, label %33, label %35

33:                                               ; preds = %30
  %34 = call ptr (ptr, ptr, ptr, ptr, i32, i32, ptr, ...) @proto_tree_add_expert_format(ptr noundef %6, ptr noundef %5, ptr noundef nonnull @ei_dvbci_bad_length, ptr noundef %2, i32 noundef %3, i32 noundef 5, ptr noundef nonnull @.str.1008)
  br label %52

35:                                               ; preds = %30
  %36 = load i32, ptr @hf_dvbci_utc_time, align 4
  %37 = call ptr @proto_tree_add_time(ptr noundef %6, i32 noundef %36, ptr noundef %2, i32 noundef %3, i32 noundef %31, ptr noundef nonnull %9)
  %38 = getelementptr inbounds nuw i8, ptr %5, i64 8
  %39 = load ptr, ptr %38, align 8
  %40 = getelementptr inbounds nuw i8, ptr %5, i64 408
  %41 = load ptr, ptr %40, align 8
  %42 = call ptr @abs_time_to_str_ex(ptr noundef %41, ptr noundef nonnull %9, i32 noundef 19, i32 noundef 0)
  call void (ptr, i32, ptr, ptr, ...) @col_append_sep_fstr(ptr noundef %39, i32 noundef 25, ptr noundef nonnull @.str.990, ptr noundef nonnull @.str.1009, ptr noundef %42)
  %43 = icmp eq i32 %1, 7
  br i1 %43, label %44, label %50

44:                                               ; preds = %35
  %45 = add i32 %31, %3
  %46 = call zeroext i16 @tvb_get_ntohs(ptr noundef %2, i32 noundef %45)
  %47 = load i32, ptr @hf_dvbci_local_offset, align 4
  %48 = sext i16 %46 to i32
  %49 = call ptr (ptr, i32, ptr, i32, i32, i32, ptr, ...) @proto_tree_add_int_format(ptr noundef %6, i32 noundef %47, ptr noundef %2, i32 noundef %45, i32 noundef 2, i32 noundef %48, ptr noundef nonnull @.str.1010, i32 noundef %48)
  br label %52

50:                                               ; preds = %35
  %51 = call ptr @proto_tree_add_expert(ptr noundef %6, ptr noundef %5, ptr noundef nonnull @ei_dvbci_time_offs_unknown, ptr noundef %2, i32 noundef 0, i32 noundef 0)
  br label %52

52:                                               ; preds = %20, %19, %44, %50, %7, %33, %26
  call void @llvm.lifetime.end.p0(i64 16, ptr nonnull %9) #16
  call void @llvm.lifetime.end.p0(i64 16, ptr nonnull %8) #16
  ret void
}